target datalayout = "e-m:e-p270:32:32-p271:32:32-p272:64:64-i64:64-i128:128-f80:128-n8:16:32:64-S128"
target triple = "x86_64-pc-linux-gnu"

@.str.710 = private unnamed_addr constant [5 x i8] c"code\00", align 1
@.str.711 = private unnamed_addr constant [7 x i8] c"string\00", align 1

; Function Attrs: inlinehint nounwind uwtable
define internal ptr @av_make_error_string(ptr noundef %0, i64 noundef %1, i32 noundef %2) #5 {
  %4 = alloca ptr, align 8
  %5 = alloca i64, align 8
  %6 = alloca i32, align 4
  store ptr %0, ptr %4, align 8, !tbaa !4
  store i64 %1, ptr %5, align 8, !tbaa !114
  store i32 %2, ptr %6, align 4, !tbaa !11
  %7 = load i32, ptr %6, align 4, !tbaa !11
  %8 = load ptr, ptr %4, align 8, !tbaa !4
  %9 = load i64, ptr %5, align 8, !tbaa !114
  %10 = call i32 @av_strerror(i32 noundef %7, ptr noundef %8, i64 noundef %9)
  %11 = load ptr, ptr %4, align 8, !tbaa !4
  ret ptr %11
}

; Function Attrs: nounwind uwtable
define internal void @show_error(ptr noundef %0, i32 noundef %1) #0 {
  %3 = alloca ptr, align 8
  %4 = alloca i32, align 4
  %5 = alloca [64 x i8], align 1
  store ptr %0, ptr %3, align 8, !tbaa !28
  store i32 %1, ptr %4, align 4, !tbaa !11
  %6 = load ptr, ptr %3, align 8, !tbaa !28
  call void @avtext_print_section_header(ptr noundef %6, ptr noundef null, i32 noundef 3)
  %7 = load ptr, ptr %3, align 8, !tbaa !28
  %8 = load i32, ptr %4, align 4, !tbaa !11
  %9 = sext i32 %8 to i64
  call void @avtext_print_integer(ptr noundef %7, ptr noundef @.str.710, i64 noundef %9, i32 noundef 0)
  %10 = load ptr, ptr %3, align 8, !tbaa !28
  call void @llvm.memset.p0.i64(ptr align 1 %5, i8 0, i64 64, i1 false)
  %11 = getelementptr inbounds [64 x i8], ptr %5, i64 0, i64 0
  %12 = load i32, ptr %4, align 4, !tbaa !11
  %13 = call ptr @av_make_error_string(ptr noundef %11, i64 noundef 64, i32 noundef %12)
  %14 = call i32 @avtext_print_string(ptr noundef %10, ptr noundef @.str.711, ptr noundef %13, i32 noundef 0)
  %15 = load ptr, ptr %3, align 8, !tbaa !28
  call void @avtext_print_section_footer(ptr noundef %15)
  ret void
}