; Function Attrs: nounwind uwtable
define internal fastcc void @show_error(ptr noundef %0, i32 noundef range(i32 -2147483648, 0) %1) unnamed_addr #0 {
  %3 = alloca [64 x i8], align 1
  tail call void @avtext_print_section_header(ptr noundef %0, ptr noundef null, i32 noundef 3) #20
  %4 = sext i32 %1 to i64
  tail call void @avtext_print_integer(ptr noundef %0, ptr noundef nonnull @.str.710, i64 noundef %4, i32 noundef 0) #20
  call void @llvm.memset.p0.i64(ptr noundef nonnull align 1 dereferenceable(64) %3, i8 0, i64 64, i1 false)
  %5 = call i32 @av_strerror(i32 noundef range(i32 -2147483648, 0) %1, ptr noundef nonnull %3, i64 noundef 64) #20
  %6 = call i32 @avtext_print_string(ptr noundef %0, ptr noundef nonnull @.str.711, ptr noundef nonnull %3, i32 noundef 0) #20
  call void @avtext_print_section_footer(ptr noundef %0) #20
  ret void
}